target datalayout = "e-m:e-p270:32:32-p271:32:32-p272:64:64-i64:64-i128:128-f80:128-n8:16:32:64-S128"
target triple = "x86_64-pc-linux-gnu"

%struct.Aig_Man_t_ = type { ptr, ptr, ptr, ptr, ptr, ptr, ptr, %struct.Aig_Obj_t_, i32, i32, i32, i32, i32, i32, [7 x i32], i32, ptr, i32, ptr, i32, ptr, i32, i32, i32, ptr, i32, i32, i32, i32, i32, ptr, ptr, i32, ptr, ptr, i32, ptr, ptr, i32, i32, i32, ptr, ptr, ptr, ptr, ptr, ptr, ptr, ptr, ptr, ptr, ptr, ptr, ptr, ptr, i32, ptr, ptr, ptr, ptr, i32, i64, i64, i64, ptr, ptr }
%struct.Aig_Obj_t_ = type { %union.anon, ptr, ptr, i64, i32, i32, %union.anon.0 }
%union.anon = type { ptr }
%union.anon.0 = type { ptr }
%struct.Vec_Int_t_ = type { i32, i32, ptr }
%struct.Gia_Man_t_ = type { ptr, ptr, i32, i32, i32, i32, ptr, ptr, i32, i32, i32, ptr, ptr, %struct.Vec_Int_t_, %struct.Vec_Int_t_, i32, i32, i32, %struct.Vec_Int_t_, ptr, ptr, ptr, i32, i32, i32, i32, ptr, ptr, ptr, ptr, ptr, i32, i32, ptr, i32, ptr, ptr, ptr, ptr, ptr, ptr, ptr, ptr, ptr, ptr, ptr, ptr, ptr, ptr, ptr, ptr, ptr, ptr, %struct.Vec_Int_t_, %struct.Vec_Int_t_, ptr, ptr, ptr, ptr, ptr, ptr, ptr, ptr, ptr, ptr, ptr, ptr, ptr, ptr, ptr, ptr, ptr, ptr, ptr, ptr, ptr, i32, float, float, ptr, ptr, i32, ptr, ptr, ptr, ptr, ptr, ptr, ptr, ptr, ptr, ptr, ptr, ptr, ptr, ptr, ptr, i64, i64, ptr, ptr, i32, i32, i32, i32, i32, i32, i32, i32, i32, i32, i32, i32, ptr, ptr, ptr, ptr, ptr, ptr, ptr, ptr, i32, i32, i32, ptr, i32, i32, ptr, ptr, ptr, ptr, ptr, ptr, i32, i32, ptr, %struct.Vec_Int_t_, %struct.Vec_Int_t_, %struct.Vec_Int_t_, ptr, ptr, ptr, i32, i32, i32, i32, ptr, ptr, ptr, ptr, ptr }

; Function Attrs: nounwind uwtable
define i32 @Ssw_RarSignalFilterGia(ptr noundef %0, ptr noundef %1) #0 {
  %3 = alloca ptr, align 8
  %4 = alloca ptr, align 8
  %5 = alloca ptr, align 8
  %6 = alloca i32, align 4
  store ptr %0, ptr %3, align 8, !tbaa !162
  store ptr %1, ptr %4, align 8, !tbaa !3
  call void @llvm.lifetime.start.p0(i64 8, ptr %5) #11
  call void @llvm.lifetime.start.p0(i64 4, ptr %6) #11
  %7 = load ptr, ptr %3, align 8, !tbaa !162
  %8 = call ptr @Gia_ManToAigSimple(ptr noundef %7)
  store ptr %8, ptr %5, align 8, !tbaa !53
  %9 = load ptr, ptr %3, align 8, !tbaa !162
  %10 = getelementptr inbounds nuw %struct.Gia_Man_t_, ptr %9, i32 0, i32 27
  %11 = load ptr, ptr %10, align 8, !tbaa !193
  %12 = icmp ne ptr %11, null
  br i1 %12, label %13, label %40

13:                                               ; preds = %2
  %14 = load ptr, ptr %5, align 8, !tbaa !53
  %15 = load ptr, ptr %3, align 8, !tbaa !162
  call void @Gia_ManReprToAigRepr2(ptr noundef %14, ptr noundef %15)
  %16 = load ptr, ptr %3, align 8, !tbaa !162
  %17 = getelementptr inbounds nuw %struct.Gia_Man_t_, ptr %16, i32 0, i32 27
  %18 = load ptr, ptr %17, align 8, !tbaa !193
  %19 = icmp ne ptr %18, null
  br i1 %19, label %20, label %26

20:                                               ; preds = %13
  %21 = load ptr, ptr %3, align 8, !tbaa !162
  %22 = getelementptr inbounds nuw %struct.Gia_Man_t_, ptr %21, i32 0, i32 27
  %23 = load ptr, ptr %22, align 8, !tbaa !193
  call void @free(ptr noundef %23) #11
  %24 = load ptr, ptr %3, align 8, !tbaa !162
  %25 = getelementptr inbounds nuw %struct.Gia_Man_t_, ptr %24, i32 0, i32 27
  store ptr null, ptr %25, align 8, !tbaa !193
  br label %27

26:                                               ; preds = %13
  br label %27

27:                                               ; preds = %26, %20
  %28 = load ptr, ptr %3, align 8, !tbaa !162
  %29 = getelementptr inbounds nuw %struct.Gia_Man_t_, ptr %28, i32 0, i32 28
  %30 = load ptr, ptr %29, align 8, !tbaa !194
  %31 = icmp ne ptr %30, null
  br i1 %31, label %32, label %38

32:                                               ; preds = %27
  %33 = load ptr, ptr %3, align 8, !tbaa !162
  %34 = getelementptr inbounds nuw %struct.Gia_Man_t_, ptr %33, i32 0, i32 28
  %35 = load ptr, ptr %34, align 8, !tbaa !194
  call void @free(ptr noundef %35) #11
  %36 = load ptr, ptr %3, align 8, !tbaa !162
  %37 = getelementptr inbounds nuw %struct.Gia_Man_t_, ptr %36, i32 0, i32 28
  store ptr null, ptr %37, align 8, !tbaa !194
  br label %39

38:                                               ; preds = %27
  br label %39

39:                                               ; preds = %38, %32
  br label %40

40:                                               ; preds = %39, %2
  %41 = load ptr, ptr %5, align 8, !tbaa !53
  %42 = load ptr, ptr %4, align 8, !tbaa !3
  %43 = call i32 @Ssw_RarSignalFilter(ptr noundef %41, ptr noundef %42)
  store i32 %43, ptr %6, align 4, !tbaa !24
  %44 = load ptr, ptr %5, align 8, !tbaa !53
  %45 = load ptr, ptr %3, align 8, !tbaa !162
  call void @Gia_ManReprFromAigRepr(ptr noundef %44, ptr noundef %45)
  %46 = load ptr, ptr %3, align 8, !tbaa !162
  %47 = getelementptr inbounds nuw %struct.Gia_Man_t_, ptr %46, i32 0, i32 51
  %48 = load ptr, ptr %47, align 8, !tbaa !165
  call void @Abc_CexFree(ptr noundef %48)
  %49 = load ptr, ptr %5, align 8, !tbaa !53
  %50 = getelementptr inbounds nuw %struct.Aig_Man_t_, ptr %49, i32 0, i32 51
  %51 = load ptr, ptr %50, align 8, !tbaa !134
  %52 = load ptr, ptr %3, align 8, !tbaa !162
  %53 = getelementptr inbounds nuw %struct.Gia_Man_t_, ptr %52, i32 0, i32 51
  store ptr %51, ptr %53, align 8, !tbaa !165
  %54 = load ptr, ptr %5, align 8, !tbaa !53
  %55 = getelementptr inbounds nuw %struct.Aig_Man_t_, ptr %54, i32 0, i32 51
  store ptr null, ptr %55, align 8, !tbaa !134
  %56 = load ptr, ptr %5, align 8, !tbaa !53
  call void @Aig_ManStop(ptr noundef %56)
  %57 = load i32, ptr %6, align 4, !tbaa !24
  call void @llvm.lifetime.end.p0(i64 4, ptr %6) #11
  call void @llvm.lifetime.end.p0(i64 8, ptr %5) #11
  ret i32 %57
}