; Function Attrs: nounwind uwtable
define range(i32 -1, 1) i32 @Ssw_RarSignalFilterGia(ptr noundef %0, ptr noundef %1) local_unnamed_addr #2 {
  %3 = tail call ptr @Gia_ManToAigSimple(ptr noundef %0) #20
  %4 = getelementptr inbounds nuw i8, ptr %0, i64 192
  %5 = load ptr, ptr %4, align 8, !tbaa !188
  %.not = icmp eq ptr %5, null
  br i1 %.not, label %13, label %6

6:                                                ; preds = %2
  tail call void @Gia_ManReprToAigRepr2(ptr noundef %3, ptr noundef nonnull %0) #20
  %7 = load ptr, ptr %4, align 8, !tbaa !188
  %.not20 = icmp eq ptr %7, null
  br i1 %.not20, label %9, label %8

8:                                                ; preds = %6
  tail call void @free(ptr noundef nonnull %7) #20
  store ptr null, ptr %4, align 8, !tbaa !188
  br label %9

9:                                                ; preds = %6, %8
  %10 = getelementptr inbounds nuw i8, ptr %0, i64 200
  %11 = load ptr, ptr %10, align 8, !tbaa !189
  %.not21 = icmp eq ptr %11, null
  br i1 %.not21, label %13, label %12

12:                                               ; preds = %9
  tail call void @free(ptr noundef nonnull %11) #20
  store ptr null, ptr %10, align 8, !tbaa !189
  br label %13

13:                                               ; preds = %12, %9, %2
  %14 = tail call i32 @Ssw_RarSignalFilter(ptr noundef %3, ptr noundef %1)
  tail call void @Gia_ManReprFromAigRepr(ptr noundef %3, ptr noundef nonnull %0) #20
  %15 = getelementptr inbounds nuw i8, ptr %0, i64 376
  %16 = load ptr, ptr %15, align 8, !tbaa !172
  tail call void @Abc_CexFree(ptr noundef %16) #20
  %17 = getelementptr inbounds nuw i8, ptr %3, i64 408
  %18 = load ptr, ptr %17, align 8, !tbaa !122
  store ptr %18, ptr %15, align 8, !tbaa !172
  store ptr null, ptr %17, align 8, !tbaa !122
  tail call void @Aig_ManStop(ptr noundef %3) #20
  ret i32 %14
}